target datalayout = "e-m:e-p270:32:32-p271:32:32-p272:64:64-i64:64-i128:128-f80:128-n8:16:32:64-S128"
target triple = "x86_64-pc-linux-gnu"

@H5T_init_g = external global i8, align 1
@H5_libterm_g = external global i8, align 1

; Function Attrs: nounwind uwtable
define zeroext i1 @H5T__bit_inc(ptr noundef %0, i64 noundef %1, i64 noundef %2) #0 {
  %4 = alloca ptr, align 8
  %5 = alloca i64, align 8
  %6 = alloca i64, align 8
  %7 = alloca i64, align 8
  %8 = alloca i32, align 4
  %9 = alloca i32, align 4
  %10 = alloca i32, align 4
  store ptr %0, ptr %4, align 8, !tbaa !3
  store i64 %1, ptr %5, align 8, !tbaa !8
  store i64 %2, ptr %6, align 8, !tbaa !8
  call void @llvm.lifetime.start.p0(i64 8, ptr %7) #4
  %11 = load i64, ptr %5, align 8, !tbaa !8
  %12 = udiv i64 %11, 8
  store i64 %12, ptr %7, align 8, !tbaa !8
  call void @llvm.lifetime.start.p0(i64 4, ptr %8) #4
  store i32 1, ptr %8, align 4, !tbaa !21
  call void @llvm.lifetime.start.p0(i64 4, ptr %9) #4
  call void @llvm.lifetime.start.p0(i64 4, ptr %10) #4
  %13 = load i8, ptr @H5T_init_g, align 1, !tbaa !10, !range !12, !noundef !13
  %14 = trunc i8 %13 to i1
  br i1 %14, label %19, label %15

15:                                               ; preds = %3
  %16 = load i8, ptr @H5_libterm_g, align 1, !tbaa !10, !range !12, !noundef !13
  %17 = trunc i8 %16 to i1
  %18 = xor i1 %17, true
  br label %19

19:                                               ; preds = %15, %3
  %20 = phi i1 [ true, %3 ], [ %18, %15 ]
  %21 = xor i1 %20, true
  %22 = xor i1 %21, true
  %23 = zext i1 %22 to i32
  %24 = sext i32 %23 to i64
  %25 = call i64 @llvm.expect.i64(i64 %24, i64 1)
  %26 = icmp ne i64 %25, 0
  br i1 %26, label %27, label %199

27:                                               ; preds = %19
  %28 = load i64, ptr %5, align 8, !tbaa !8
  %29 = urem i64 %28, 8
  store i64 %29, ptr %5, align 8, !tbaa !8
  %30 = load i64, ptr %5, align 8, !tbaa !8
  %31 = icmp ne i64 %30, 0
  br i1 %31, label %32, label %121

32:                                               ; preds = %27
  %33 = load i64, ptr %6, align 8, !tbaa !8
  %34 = load i64, ptr %5, align 8, !tbaa !8
  %35 = add i64 %33, %34
  %36 = icmp ult i64 %35, 8
  br i1 %36, label %37, label %42

37:                                               ; preds = %32
  %38 = load i64, ptr %6, align 8, !tbaa !8
  %39 = trunc i64 %38 to i32
  %40 = shl i32 1, %39
  %41 = sub i32 %40, 1
  store i32 %41, ptr %10, align 4, !tbaa !21
  br label %48

42:                                               ; preds = %32
  %43 = load i64, ptr %5, align 8, !tbaa !8
  %44 = sub i64 8, %43
  %45 = trunc i64 %44 to i32
  %46 = shl i32 1, %45
  %47 = sub i32 %46, 1
  store i32 %47, ptr %10, align 4, !tbaa !21
  br label %48

48:                                               ; preds = %42, %37
  %49 = load ptr, ptr %4, align 8, !tbaa !3
  %50 = load i64, ptr %7, align 8, !tbaa !8
  %51 = getelementptr inbounds nuw i8, ptr %49, i64 %50
  %52 = load i8, ptr %51, align 1, !tbaa !14
  %53 = zext i8 %52 to i32
  %54 = load i64, ptr %5, align 8, !tbaa !8
  %55 = trunc i64 %54 to i32
  %56 = lshr i32 %53, %55
  %57 = load i32, ptr %10, align 4, !tbaa !21
  %58 = and i32 %56, %57
  store i32 %58, ptr %9, align 4, !tbaa !21
  %59 = load i32, ptr %9, align 4, !tbaa !21
  %60 = add i32 %59, 1
  store i32 %60, ptr %9, align 4, !tbaa !21
  %61 = load i32, ptr %9, align 4, !tbaa !21
  %62 = load i64, ptr %6, align 8, !tbaa !8
  %63 = load i64, ptr %5, align 8, !tbaa !8
  %64 = sub i64 8, %63
  %65 = icmp ult i64 %62, %64
  br i1 %65, label %66, label %68

66:                                               ; preds = %48
  %67 = load i64, ptr %6, align 8, !tbaa !8
  br label %71

68:                                               ; preds = %48
  %69 = load i64, ptr %5, align 8, !tbaa !8
  %70 = sub i64 8, %69
  br label %71

71:                                               ; preds = %68, %66
  %72 = phi i64 [ %67, %66 ], [ %70, %68 ]
  %73 = trunc i64 %72 to i32
  %74 = shl i32 1, %73
  %75 = and i32 %61, %74
  store i32 %75, ptr %8, align 4, !tbaa !21
  %76 = load i32, ptr %10, align 4, !tbaa !21
  %77 = load i64, ptr %5, align 8, !tbaa !8
  %78 = trunc i64 %77 to i32
  %79 = shl i32 %76, %78
  %80 = xor i32 %79, -1
  %81 = trunc i32 %80 to i8
  %82 = zext i8 %81 to i32
  %83 = load ptr, ptr %4, align 8, !tbaa !3
  %84 = load i64, ptr %7, align 8, !tbaa !8
  %85 = getelementptr inbounds nuw i8, ptr %83, i64 %84
  %86 = load i8, ptr %85, align 1, !tbaa !14
  %87 = zext i8 %86 to i32
  %88 = and i32 %87, %82
  %89 = trunc i32 %88 to i8
  store i8 %89, ptr %85, align 1, !tbaa !14
  %90 = load ptr, ptr %4, align 8, !tbaa !3
  %91 = load i64, ptr %7, align 8, !tbaa !8
  %92 = getelementptr inbounds nuw i8, ptr %90, i64 %91
  %93 = load i8, ptr %92, align 1, !tbaa !14
  %94 = zext i8 %93 to i32
  %95 = load i32, ptr %9, align 4, !tbaa !21
  %96 = load i32, ptr %10, align 4, !tbaa !21
  %97 = and i32 %95, %96
  %98 = load i64, ptr %5, align 8, !tbaa !8
  %99 = trunc i64 %98 to i32
  %100 = shl i32 %97, %99
  %101 = or i32 %94, %100
  %102 = trunc i32 %101 to i8
  %103 = load ptr, ptr %4, align 8, !tbaa !3
  %104 = load i64, ptr %7, align 8, !tbaa !8
  %105 = getelementptr inbounds nuw i8, ptr %103, i64 %104
  store i8 %102, ptr %105, align 1, !tbaa !14
  %106 = load i64, ptr %6, align 8, !tbaa !8
  %107 = load i64, ptr %5, align 8, !tbaa !8
  %108 = sub i64 8, %107
  %109 = icmp ult i64 %106, %108
  br i1 %109, label %110, label %112

110:                                              ; preds = %71
  %111 = load i64, ptr %6, align 8, !tbaa !8
  br label %115

112:                                              ; preds = %71
  %113 = load i64, ptr %5, align 8, !tbaa !8
  %114 = sub i64 8, %113
  br label %115

115:                                              ; preds = %112, %110
  %116 = phi i64 [ %111, %110 ], [ %114, %112 ]
  %117 = load i64, ptr %6, align 8, !tbaa !8
  %118 = sub i64 %117, %116
  store i64 %118, ptr %6, align 8, !tbaa !8
  store i64 0, ptr %5, align 8, !tbaa !8
  %119 = load i64, ptr %7, align 8, !tbaa !8
  %120 = add i64 %119, 1
  store i64 %120, ptr %7, align 8, !tbaa !8
  br label %121

121:                                              ; preds = %115, %27
  br label %122

122:                                              ; preds = %130, %121
  %123 = load i32, ptr %8, align 4, !tbaa !21
  %124 = icmp ne i32 %123, 0
  br i1 %124, label %125, label %128

125:                                              ; preds = %122
  %126 = load i64, ptr %6, align 8, !tbaa !8
  %127 = icmp uge i64 %126, 8
  br label %128

128:                                              ; preds = %125, %122
  %129 = phi i1 [ false, %122 ], [ %127, %125 ]
  br i1 %129, label %130, label %150

130:                                              ; preds = %128
  %131 = load ptr, ptr %4, align 8, !tbaa !3
  %132 = load i64, ptr %7, align 8, !tbaa !8
  %133 = getelementptr inbounds nuw i8, ptr %131, i64 %132
  %134 = load i8, ptr %133, align 1, !tbaa !14
  %135 = zext i8 %134 to i32
  store i32 %135, ptr %9, align 4, !tbaa !21
  %136 = load i32, ptr %9, align 4, !tbaa !21
  %137 = add i32 %136, 1
  store i32 %137, ptr %9, align 4, !tbaa !21
  %138 = load i32, ptr %9, align 4, !tbaa !21
  %139 = and i32 %138, 256
  store i32 %139, ptr %8, align 4, !tbaa !21
  %140 = load i32, ptr %9, align 4, !tbaa !21
  %141 = and i32 %140, 255
  %142 = trunc i32 %141 to i8
  %143 = load ptr, ptr %4, align 8, !tbaa !3
  %144 = load i64, ptr %7, align 8, !tbaa !8
  %145 = getelementptr inbounds nuw i8, ptr %143, i64 %144
  store i8 %142, ptr %145, align 1, !tbaa !14
  %146 = load i64, ptr %7, align 8, !tbaa !8
  %147 = add i64 %146, 1
  store i64 %147, ptr %7, align 8, !tbaa !8
  %148 = load i64, ptr %6, align 8, !tbaa !8
  %149 = sub i64 %148, 8
  store i64 %149, ptr %6, align 8, !tbaa !8
  br label %122, !llvm.loop !34

150:                                              ; preds = %128
  %151 = load i32, ptr %8, align 4, !tbaa !21
  %152 = icmp ne i32 %151, 0
  br i1 %152, label %153, label %198

153:                                              ; preds = %150
  %154 = load i64, ptr %6, align 8, !tbaa !8
  %155 = icmp ugt i64 %154, 0
  br i1 %155, label %156, label %198

156:                                              ; preds = %153
  %157 = load i64, ptr %6, align 8, !tbaa !8
  %158 = trunc i64 %157 to i32
  %159 = shl i32 1, %158
  %160 = sub i32 %159, 1
  store i32 %160, ptr %10, align 4, !tbaa !21
  %161 = load ptr, ptr %4, align 8, !tbaa !3
  %162 = load i64, ptr %7, align 8, !tbaa !8
  %163 = getelementptr inbounds nuw i8, ptr %161, i64 %162
  %164 = load i8, ptr %163, align 1, !tbaa !14
  %165 = zext i8 %164 to i32
  %166 = load i32, ptr %10, align 4, !tbaa !21
  %167 = and i32 %165, %166
  store i32 %167, ptr %9, align 4, !tbaa !21
  %168 = load i32, ptr %9, align 4, !tbaa !21
  %169 = add i32 %168, 1
  store i32 %169, ptr %9, align 4, !tbaa !21
  %170 = load i32, ptr %9, align 4, !tbaa !21
  %171 = load i64, ptr %6, align 8, !tbaa !8
  %172 = trunc i64 %171 to i32
  %173 = shl i32 1, %172
  %174 = and i32 %170, %173
  store i32 %174, ptr %8, align 4, !tbaa !21
  %175 = load i32, ptr %10, align 4, !tbaa !21
  %176 = xor i32 %175, -1
  %177 = trunc i32 %176 to i8
  %178 = zext i8 %177 to i32
  %179 = load ptr, ptr %4, align 8, !tbaa !3
  %180 = load i64, ptr %7, align 8, !tbaa !8
  %181 = getelementptr inbounds nuw i8, ptr %179, i64 %180
  %182 = load i8, ptr %181, align 1, !tbaa !14
  %183 = zext i8 %182 to i32
  %184 = and i32 %183, %178
  %185 = trunc i32 %184 to i8
  store i8 %185, ptr %181, align 1, !tbaa !14
  %186 = load i32, ptr %9, align 4, !tbaa !21
  %187 = load i32, ptr %10, align 4, !tbaa !21
  %188 = and i32 %186, %187
  %189 = trunc i32 %188 to i8
  %190 = zext i8 %189 to i32
  %191 = load ptr, ptr %4, align 8, !tbaa !3
  %192 = load i64, ptr %7, align 8, !tbaa !8
  %193 = getelementptr inbounds nuw i8, ptr %191, i64 %192
  %194 = load i8, ptr %193, align 1, !tbaa !14
  %195 = zext i8 %194 to i32
  %196 = or i32 %195, %190
  %197 = trunc i32 %196 to i8
  store i8 %197, ptr %193, align 1, !tbaa !14
  br label %198

198:                                              ; preds = %156, %153, %150
  br label %199

199:                                              ; preds = %198, %19
  %200 = load i32, ptr %8, align 4, !tbaa !21
  %201 = icmp ne i32 %200, 0
  %202 = select i1 %201, i32 1, i32 0
  %203 = icmp ne i32 %202, 0
  call void @llvm.lifetime.end.p0(i64 4, ptr %10) #4
  call void @llvm.lifetime.end.p0(i64 4, ptr %9) #4
  call void @llvm.lifetime.end.p0(i64 4, ptr %8) #4
  call void @llvm.lifetime.end.p0(i64 8, ptr %7) #4
  ret i1 %203
}