; Function Attrs: nofree norecurse nosync nounwind memory(read, argmem: readwrite, inaccessiblemem: none) uwtable
define zeroext i1 @H5T__bit_inc(ptr noundef captures(none) %0, i64 noundef %1, i64 noundef %2) local_unnamed_addr #0 {
  %4 = lshr i64 %1, 3
  %5 = load i8, ptr @H5T_init_g, align 1, !tbaa !3, !range !7, !noundef !8
  %6 = trunc nuw i8 %5 to i1
  %7 = load i8, ptr @H5_libterm_g, align 1, !range !7
  %8 = trunc nuw i8 %7 to i1
  %9 = xor i1 %8, true
  %10 = select i1 %6, i1 true, i1 %9
  br i1 %10, label %11, label %72, !prof !9

11:                                               ; preds = %3
  %12 = and i64 %1, 7
  %.not = icmp eq i64 %12, 0
  br i1 %.not, label %40, label %13

13:                                               ; preds = %11
  %14 = add i64 %2, %12
  %15 = icmp ult i64 %14, 8
  %16 = trunc i64 %2 to i32
  %17 = trunc nuw nsw i64 %12 to i32
  %18 = sub nuw nsw i32 8, %17
  %.pn = select i1 %15, i32 %16, i32 %18
  %.0.in = shl nsw i32 -1, %.pn
  %.0 = xor i32 %.0.in, -1
  %19 = getelementptr inbounds nuw i8, ptr %0, i64 %4
  %20 = load i8, ptr %19, align 1, !tbaa !10
  %21 = zext i8 %20 to i32
  %22 = lshr i32 %21, %17
  %23 = and i32 %22, %.0
  %24 = add nuw nsw i32 %23, 1
  %25 = sub nuw nsw i64 8, %12
  %26 = tail call i64 @llvm.umin.i64(i64 %2, i64 %25)
  %27 = trunc nuw nsw i64 %26 to i32
  %28 = shl nuw nsw i32 1, %27
  %29 = and i32 %24, %28
  %30 = shl i32 %.0, %17
  %31 = trunc i32 %30 to i8
  %32 = xor i8 %31, -1
  %33 = and i8 %20, %32
  %34 = and i32 %24, %.0
  %35 = shl nuw nsw i32 %34, %17
  %36 = trunc i32 %35 to i8
  %37 = or i8 %33, %36
  store i8 %37, ptr %19, align 1, !tbaa !10
  %38 = sub i64 %2, %26
  %39 = add nuw nsw i64 %4, 1
  br label %40

40:                                               ; preds = %13, %11
  %.065 = phi i64 [ %38, %13 ], [ %2, %11 ]
  %.063 = phi i64 [ %39, %13 ], [ %4, %11 ]
  %.1 = phi i32 [ %29, %13 ], [ 1, %11 ]
  %41 = icmp ne i32 %.1, 0
  %42 = icmp ugt i64 %.065, 7
  %43 = select i1 %41, i1 %42, i1 false
  br i1 %43, label %.lr.ph, label %._crit_edge

.lr.ph:                                           ; preds = %40, %.lr.ph
  %.16470 = phi i64 [ %50, %.lr.ph ], [ %.063, %40 ]
  %.16669 = phi i64 [ %51, %.lr.ph ], [ %.065, %40 ]
  %44 = getelementptr inbounds nuw i8, ptr %0, i64 %.16470
  %45 = load i8, ptr %44, align 1, !tbaa !10
  %46 = zext i8 %45 to i32
  %47 = add nuw nsw i32 %46, 1
  %48 = and i32 %47, 256
  %49 = trunc i32 %47 to i8
  store i8 %49, ptr %44, align 1, !tbaa !10
  %50 = add nuw nsw i64 %.16470, 1
  %51 = add i64 %.16669, -8
  %52 = icmp ne i32 %48, 0
  %53 = icmp ugt i64 %51, 7
  %54 = select i1 %52, i1 %53, i1 false
  br i1 %54, label %.lr.ph, label %._crit_edge, !llvm.loop !31

._crit_edge:                                      ; preds = %.lr.ph, %40
  %.166.lcssa = phi i64 [ %.065, %40 ], [ %51, %.lr.ph ]
  %.164.lcssa = phi i64 [ %.063, %40 ], [ %50, %.lr.ph ]
  %.2.lcssa = phi i32 [ %.1, %40 ], [ %48, %.lr.ph ]
  %.lcssa = phi i1 [ %41, %40 ], [ %52, %.lr.ph ]
  %55 = icmp ne i64 %.166.lcssa, 0
  %or.cond = select i1 %.lcssa, i1 %55, i1 false
  br i1 %or.cond, label %56, label %72

56:                                               ; preds = %._crit_edge
  %57 = trunc i64 %.166.lcssa to i32
  %58 = shl nuw i32 1, %57
  %59 = add i32 %58, -1
  %60 = getelementptr inbounds nuw i8, ptr %0, i64 %.164.lcssa
  %61 = load i8, ptr %60, align 1, !tbaa !10
  %62 = zext i8 %61 to i32
  %63 = and i32 %59, %62
  %64 = add nuw nsw i32 %63, 1
  %65 = and i32 %64, %58
  %66 = trunc i32 %58 to i8
  %67 = sub i8 0, %66
  %68 = and i8 %61, %67
  %69 = and i32 %64, %59
  %70 = trunc i32 %69 to i8
  %71 = or i8 %68, %70
  store i8 %71, ptr %60, align 1, !tbaa !10
  br label %72

72:                                               ; preds = %._crit_edge, %56, %3
  %.062 = phi i32 [ %65, %56 ], [ %.2.lcssa, %._crit_edge ], [ 1, %3 ]
  %73 = icmp ne i32 %.062, 0
  ret i1 %73
}